; Function Attrs: mustprogress nofree norecurse nosync nounwind willreturn memory(argmem: read) uwtable
define range(i64 0, -3) i64 @lv_tlsf_block_size(ptr noundef readonly %0) local_unnamed_addr #3 {
  %.not = icmp eq ptr %0, null
  br i1 %.not, label %5, label %2

2:                                                ; preds = %1
  %3 = getelementptr i8, ptr %0, i64 -8
  %.val = load i64, ptr %3, align 8, !tbaa !15
  %4 = and i64 %.val, -4
  br label %5

5:                                                ; preds = %2, %1
  %.0 = phi i64 [ %4, %2 ], [ 0, %1 ]
  ret i64 %.0
}